target datalayout = "e-m:e-p270:32:32-p271:32:32-p272:64:64-i64:64-i128:128-f80:128-n8:16:32:64-S128"
target triple = "x86_64-pc-linux-gnu"

%"class.absl::lts_20240722::log_internal::Voidify" = type { i8 }
%"class.absl::lts_20240722::log_internal::LogMessage" = type { %"class.absl::lts_20240722::base_internal::ErrnoSaver", %"class.std::unique_ptr" }
%"class.absl::lts_20240722::base_internal::ErrnoSaver" = type { i32 }
%"class.std::unique_ptr" = type { %"struct.std::__uniq_ptr_data" }
%"struct.std::__uniq_ptr_data" = type { %"class.std::__uniq_ptr_impl" }
%"class.std::__uniq_ptr_impl" = type { %"class.std::tuple" }
%"class.std::tuple" = type { %"struct.std::_Tuple_impl" }
%"struct.std::_Tuple_impl" = type { %"struct.std::_Head_base.1" }
%"struct.std::_Head_base.1" = type { ptr }
%"class.std::basic_string_view" = type { i64, ptr }
%struct.alts_zero_copy_grpc_protector = type { %struct.tsi_zero_copy_grpc_protector, ptr, ptr, i64, i64, %struct.grpc_slice_buffer, %struct.grpc_slice_buffer, %struct.grpc_slice_buffer, i32 }
%struct.tsi_zero_copy_grpc_protector = type { ptr }
%struct.grpc_slice_buffer = type { ptr, ptr, i64, i64, i64, [6 x %struct.grpc_slice] }
%struct.grpc_slice = type { ptr, %"union.grpc_slice::grpc_slice_data" }
%"union.grpc_slice::grpc_slice_data" = type { %"struct.grpc_slice::grpc_slice_data::grpc_slice_refcounted", [8 x i8] }
%"struct.grpc_slice::grpc_slice_data::grpc_slice_refcounted" = type { i64, ptr }

@.str = private unnamed_addr constant [164 x i8] c"generated/home/dtcxzyw/WorkSpace/Projects/compilers/llvm-opt-benchmark/bench/grpc/grpc/src/core/tsi/alts/zero_copy_frame_protector/alts_zero_copy_grpc_protector.cc\00", align 1
@.str.4 = private unnamed_addr constant [53 x i8] c"Invalid nullptr arguments to zero-copy grpc protect.\00", align 1

; Function Attrs: noinline noreturn nounwind uwtable
define linkonce_odr hidden void @__clang_call_terminate(ptr noundef %0) #14 comdat {
  %2 = call ptr @__cxa_begin_catch(ptr %0) #3
  call void @_ZSt9terminatev() #19
  unreachable
}

; Function Attrs: mustprogress nounwind uwtable
define linkonce_odr noundef i64 @_ZNSt11char_traitsIcE6lengthEPKc(ptr noundef %0) #6 comdat align 2 {
  %2 = alloca ptr, align 8
  store ptr %0, ptr %2, align 8, !tbaa !47
  %3 = load ptr, ptr %2, align 8, !tbaa !47
  %4 = call i64 @strlen(ptr noundef %3) #3
  ret i64 %4
}

; Function Attrs: mustprogress nounwind uwtable
define linkonce_odr void @_ZNSt17basic_string_viewIcSt11char_traitsIcEEC2EPKc(ptr noundef nonnull align 8 dereferenceable(16) %0, ptr noundef nonnull %1) unnamed_addr #6 comdat align 2 personality ptr @__gxx_personality_v0 {
  %3 = alloca ptr, align 8
  %4 = alloca ptr, align 8
  store ptr %0, ptr %3, align 8, !tbaa !80
  store ptr %1, ptr %4, align 8, !tbaa !47
  %5 = load ptr, ptr %3, align 8
  %6 = getelementptr inbounds nuw %"class.std::basic_string_view", ptr %5, i32 0, i32 0
  %7 = load ptr, ptr %4, align 8, !tbaa !47
  %8 = invoke noundef i64 @_ZNSt11char_traitsIcE6lengthEPKc(ptr noundef %7)
          to label %9 unwind label %12

9:                                                ; preds = %2
  store i64 %8, ptr %6, align 8, !tbaa !82
  %10 = getelementptr inbounds nuw %"class.std::basic_string_view", ptr %5, i32 0, i32 1
  %11 = load ptr, ptr %4, align 8, !tbaa !47
  store ptr %11, ptr %10, align 8, !tbaa !84
  ret void

12:                                               ; preds = %2
  %13 = landingpad { ptr, i32 }
          catch ptr null
  %14 = extractvalue { ptr, i32 } %13, 0
  call void @__clang_call_terminate(ptr %14) #19
  unreachable
}

; Function Attrs: mustprogress nounwind uwtable
define linkonce_odr void @_ZNKO4absl12lts_2024072212log_internal7VoidifyaaINS1_10LogMessageEEEvRKT_(ptr noundef nonnull align 1 dereferenceable(1) %0, ptr noundef nonnull align 8 dereferenceable(16) %1) #6 comdat align 2 {
  %3 = alloca ptr, align 8
  %4 = alloca ptr, align 8
  store ptr %0, ptr %3, align 8, !tbaa !43
  store ptr %1, ptr %4, align 8, !tbaa !45
  ret void
}

; Function Attrs: mustprogress uwtable
define linkonce_odr noundef nonnull align 8 dereferenceable(16) ptr @_ZN4absl12lts_2024072212log_internal10LogMessagelsILi53EEERS2_RAT__Kc(ptr noundef nonnull align 8 dereferenceable(16) %0, ptr noundef nonnull align 1 dereferenceable(53) %1) #4 comdat align 2 {
  %3 = alloca ptr, align 8
  %4 = alloca ptr, align 8
  %5 = alloca %"class.std::basic_string_view", align 8
  store ptr %0, ptr %3, align 8, !tbaa !45
  store ptr %1, ptr %4, align 8, !tbaa !47
  %6 = load ptr, ptr %3, align 8
  %7 = load ptr, ptr %4, align 8, !tbaa !47
  %8 = getelementptr inbounds [53 x i8], ptr %7, i64 0, i64 0
  call void @_ZNSt17basic_string_viewIcSt11char_traitsIcEEC2EPKc(ptr noundef nonnull align 8 dereferenceable(16) %5, ptr noundef %8) #3
  %9 = getelementptr inbounds nuw { i64, ptr }, ptr %5, i32 0, i32 0
  %10 = load i64, ptr %9, align 8
  %11 = getelementptr inbounds nuw { i64, ptr }, ptr %5, i32 0, i32 1
  %12 = load ptr, ptr %11, align 8
  call void @_ZN4absl12lts_2024072212log_internal10LogMessage19CopyToEncodedBufferILNS2_10StringTypeE0EEEvSt17basic_string_viewIcSt11char_traitsIcEE(ptr noundef nonnull align 8 dereferenceable(16) %6, i64 %10, ptr %12)
  ret ptr %6
}

; Function Attrs: mustprogress nounwind uwtable
define linkonce_odr noundef nonnull align 8 dereferenceable(16) ptr @_ZN4absl12lts_2024072212log_internal10LogMessage14InternalStreamEv(ptr noundef nonnull align 8 dereferenceable(16) %0) #6 comdat align 2 {
  %2 = alloca ptr, align 8
  store ptr %0, ptr %2, align 8, !tbaa !45
  %3 = load ptr, ptr %2, align 8
  ret ptr %3
}

; Function Attrs: mustprogress uwtable
define internal noundef i32 @_ZL37alts_zero_copy_grpc_protector_protectP28tsi_zero_copy_grpc_protectorP17grpc_slice_bufferS2_(ptr noundef %0, ptr noundef %1, ptr noundef %2) #4 personality ptr @__gxx_personality_v0 {
  %4 = alloca i32, align 4
  %5 = alloca ptr, align 8
  %6 = alloca ptr, align 8
  %7 = alloca ptr, align 8
  %8 = alloca %"class.absl::lts_20240722::log_internal::Voidify", align 1
  %9 = alloca %"class.absl::lts_20240722::log_internal::LogMessage", align 8
  %10 = alloca ptr, align 8
  %11 = alloca i32, align 4
  %12 = alloca ptr, align 8
  %13 = alloca i32, align 4
  %14 = alloca i32, align 4
  store ptr %0, ptr %5, align 8, !tbaa !40
  store ptr %1, ptr %6, align 8, !tbaa !131
  store ptr %2, ptr %7, align 8, !tbaa !131
  %15 = load ptr, ptr %5, align 8, !tbaa !40
  %16 = icmp eq ptr %15, null
  br i1 %16, label %23, label %17

17:                                               ; preds = %3
  %18 = load ptr, ptr %6, align 8, !tbaa !131
  %19 = icmp eq ptr %18, null
  br i1 %19, label %23, label %20

20:                                               ; preds = %17
  %21 = load ptr, ptr %7, align 8, !tbaa !131
  %22 = icmp eq ptr %21, null
  br i1 %22, label %23, label %32

23:                                               ; preds = %20, %17, %3
  call void @llvm.lifetime.start.p0(i64 1, ptr %8) #3
  call void @llvm.lifetime.start.p0(i64 16, ptr %9) #3
  call void @_ZN4absl12lts_2024072212log_internal10LogMessageC1EPKciNS2_8ErrorTagE(ptr noundef nonnull align 8 dereferenceable(16) %9, ptr noundef @.str, i32 noundef 154) #17
  %24 = call noundef nonnull align 8 dereferenceable(16) ptr @_ZN4absl12lts_2024072212log_internal10LogMessage14InternalStreamEv(ptr noundef nonnull align 8 dereferenceable(16) %9)
  %25 = invoke noundef nonnull align 8 dereferenceable(16) ptr @_ZN4absl12lts_2024072212log_internal10LogMessagelsILi53EEERS2_RAT__Kc(ptr noundef nonnull align 8 dereferenceable(16) %24, ptr noundef nonnull align 1 dereferenceable(53) @.str.4)
          to label %26 unwind label %28

26:                                               ; preds = %23
  invoke void @_ZNKO4absl12lts_2024072212log_internal7VoidifyaaINS1_10LogMessageEEEvRKT_(ptr noundef nonnull align 1 dereferenceable(1) %8, ptr noundef nonnull align 8 dereferenceable(16) %25)
          to label %27 unwind label %28

27:                                               ; preds = %26
  call void @_ZN4absl12lts_2024072212log_internal10LogMessageD1Ev(ptr noundef nonnull align 8 dereferenceable(16) %9) #18
  call void @llvm.lifetime.end.p0(i64 16, ptr %9) #3
  call void @llvm.lifetime.end.p0(i64 1, ptr %8) #3
  store i32 2, ptr %4, align 4
  br label %72

28:                                               ; preds = %26, %23
  %29 = landingpad { ptr, i32 }
          cleanup
  %30 = extractvalue { ptr, i32 } %29, 0
  store ptr %30, ptr %10, align 8
  %31 = extractvalue { ptr, i32 } %29, 1
  store i32 %31, ptr %11, align 4
  call void @_ZN4absl12lts_2024072212log_internal10LogMessageD1Ev(ptr noundef nonnull align 8 dereferenceable(16) %9) #18
  call void @llvm.lifetime.end.p0(i64 16, ptr %9) #3
  call void @llvm.lifetime.end.p0(i64 1, ptr %8) #3
  br label %74

32:                                               ; preds = %20
  call void @llvm.lifetime.start.p0(i64 8, ptr %12) #3
  %33 = load ptr, ptr %5, align 8, !tbaa !40
  store ptr %33, ptr %12, align 8, !tbaa !15
  br label %34

34:                                               ; preds = %63, %32
  %35 = load ptr, ptr %6, align 8, !tbaa !131
  %36 = getelementptr inbounds nuw %struct.grpc_slice_buffer, ptr %35, i32 0, i32 4
  %37 = load i64, ptr %36, align 8, !tbaa !133
  %38 = load ptr, ptr %12, align 8, !tbaa !15
  %39 = getelementptr inbounds nuw %struct.alts_zero_copy_grpc_protector, ptr %38, i32 0, i32 4
  %40 = load i64, ptr %39, align 8, !tbaa !34
  %41 = icmp ugt i64 %37, %40
  br i1 %41, label %42, label %64

42:                                               ; preds = %34
  %43 = load ptr, ptr %6, align 8, !tbaa !131
  %44 = load ptr, ptr %12, align 8, !tbaa !15
  %45 = getelementptr inbounds nuw %struct.alts_zero_copy_grpc_protector, ptr %44, i32 0, i32 4
  %46 = load i64, ptr %45, align 8, !tbaa !34
  %47 = load ptr, ptr %12, align 8, !tbaa !15
  %48 = getelementptr inbounds nuw %struct.alts_zero_copy_grpc_protector, ptr %47, i32 0, i32 5
  call void @grpc_slice_buffer_move_first(ptr noundef %43, i64 noundef %46, ptr noundef %48)
  call void @llvm.lifetime.start.p0(i64 4, ptr %13) #3
  %49 = load ptr, ptr %12, align 8, !tbaa !15
  %50 = getelementptr inbounds nuw %struct.alts_zero_copy_grpc_protector, ptr %49, i32 0, i32 1
  %51 = load ptr, ptr %50, align 8, !tbaa !33
  %52 = load ptr, ptr %12, align 8, !tbaa !15
  %53 = getelementptr inbounds nuw %struct.alts_zero_copy_grpc_protector, ptr %52, i32 0, i32 5
  %54 = load ptr, ptr %7, align 8, !tbaa !131
  %55 = call noundef i32 @_Z33alts_grpc_record_protocol_protectP25alts_grpc_record_protocolP17grpc_slice_bufferS2_(ptr noundef %51, ptr noundef %53, ptr noundef %54)
  store i32 %55, ptr %13, align 4, !tbaa !21
  %56 = load i32, ptr %13, align 4, !tbaa !21
  %57 = icmp ne i32 %56, 0
  br i1 %57, label %58, label %60

58:                                               ; preds = %42
  %59 = load i32, ptr %13, align 4, !tbaa !21
  store i32 %59, ptr %4, align 4
  store i32 1, ptr %14, align 4
  br label %61

60:                                               ; preds = %42
  store i32 0, ptr %14, align 4
  br label %61

61:                                               ; preds = %60, %58
  call void @llvm.lifetime.end.p0(i64 4, ptr %13) #3
  %62 = load i32, ptr %14, align 4
  switch i32 %62, label %71 [
    i32 0, label %63
  ]

63:                                               ; preds = %61
  br label %34, !llvm.loop !134

64:                                               ; preds = %34
  %65 = load ptr, ptr %12, align 8, !tbaa !15
  %66 = getelementptr inbounds nuw %struct.alts_zero_copy_grpc_protector, ptr %65, i32 0, i32 1
  %67 = load ptr, ptr %66, align 8, !tbaa !33
  %68 = load ptr, ptr %6, align 8, !tbaa !131
  %69 = load ptr, ptr %7, align 8, !tbaa !131
  %70 = call noundef i32 @_Z33alts_grpc_record_protocol_protectP25alts_grpc_record_protocolP17grpc_slice_bufferS2_(ptr noundef %67, ptr noundef %68, ptr noundef %69)
  store i32 %70, ptr %4, align 4
  store i32 1, ptr %14, align 4
  br label %71

71:                                               ; preds = %64, %61
  call void @llvm.lifetime.end.p0(i64 8, ptr %12) #3
  br label %72

72:                                               ; preds = %71, %27
  %73 = load i32, ptr %4, align 4
  ret i32 %73

74:                                               ; preds = %28
  %75 = load ptr, ptr %10, align 8
  %76 = load i32, ptr %11, align 4
  %77 = insertvalue { ptr, i32 } poison, ptr %75, 0
  %78 = insertvalue { ptr, i32 } %77, i32 %76, 1
  resume { ptr, i32 } %78
}