; Function Attrs: mustprogress uwtable
define internal noundef i32 @_ZL37alts_zero_copy_grpc_protector_protectP28tsi_zero_copy_grpc_protectorP17grpc_slice_bufferS2_(ptr noundef %0, ptr noundef %1, ptr noundef %2) #3 personality ptr @__gxx_personality_v0 {
  %4 = alloca %"class.absl::lts_20240722::log_internal::LogMessage", align 8
  %5 = icmp eq ptr %0, null
  %6 = icmp eq ptr %1, null
  %or.cond = or i1 %5, %6
  %7 = icmp eq ptr %2, null
  %or.cond3 = or i1 %or.cond, %7
  br i1 %or.cond3, label %12, label %.preheader

.preheader:                                       ; preds = %3
  %8 = getelementptr inbounds nuw i8, ptr %1, i64 32
  %9 = getelementptr inbounds nuw i8, ptr %0, i64 32
  %10 = getelementptr inbounds nuw i8, ptr %0, i64 40
  %11 = getelementptr inbounds nuw i8, ptr %0, i64 8
  br label %15

12:                                               ; preds = %3
  call void @llvm.lifetime.start.p0(i64 16, ptr nonnull %4) #17
  call void @_ZN4absl12lts_2024072212log_internal10LogMessageC1EPKciNS2_8ErrorTagE(ptr noundef nonnull align 8 dereferenceable(16) %4, ptr noundef nonnull @.str, i32 noundef 154) #18
  invoke void @_ZN4absl12lts_2024072212log_internal10LogMessage19CopyToEncodedBufferILNS2_10StringTypeE0EEEvSt17basic_string_viewIcSt11char_traitsIcEE(ptr noundef nonnull align 8 dereferenceable(16) %4, i64 52, ptr nonnull @.str.4)
          to label %_ZN4absl12lts_2024072212log_internal10LogMessagelsILi53EEERS2_RAT__Kc.exit unwind label %13

_ZN4absl12lts_2024072212log_internal10LogMessagelsILi53EEERS2_RAT__Kc.exit: ; preds = %12
  call void @_ZN4absl12lts_2024072212log_internal10LogMessageD1Ev(ptr noundef nonnull align 8 dereferenceable(16) %4) #19
  call void @llvm.lifetime.end.p0(i64 16, ptr nonnull %4) #17
  br label %.loopexit

13:                                               ; preds = %12
  %14 = landingpad { ptr, i32 }
          cleanup
  call void @_ZN4absl12lts_2024072212log_internal10LogMessageD1Ev(ptr noundef nonnull align 8 dereferenceable(16) %4) #19
  call void @llvm.lifetime.end.p0(i64 16, ptr nonnull %4) #17
  resume { ptr, i32 } %14

15:                                               ; preds = %.preheader, %19
  %16 = load i64, ptr %8, align 8, !tbaa !39
  %17 = load i64, ptr %9, align 8, !tbaa !21
  %18 = icmp ugt i64 %16, %17
  br i1 %18, label %19, label %22

19:                                               ; preds = %15
  tail call void @grpc_slice_buffer_move_first(ptr noundef nonnull %1, i64 noundef %17, ptr noundef nonnull %10)
  %20 = load ptr, ptr %11, align 8, !tbaa !20
  %21 = tail call noundef i32 @_Z33alts_grpc_record_protocol_protectP25alts_grpc_record_protocolP17grpc_slice_bufferS2_(ptr noundef %20, ptr noundef nonnull %10, ptr noundef %2)
  %.not = icmp eq i32 %21, 0
  br i1 %.not, label %15, label %.loopexit, !llvm.loop !40

22:                                               ; preds = %15
  %23 = load ptr, ptr %11, align 8, !tbaa !20
  %24 = tail call noundef i32 @_Z33alts_grpc_record_protocol_protectP25alts_grpc_record_protocolP17grpc_slice_bufferS2_(ptr noundef %23, ptr noundef nonnull %1, ptr noundef %2)
  br label %.loopexit

.loopexit:                                        ; preds = %19, %22, %_ZN4absl12lts_2024072212log_internal10LogMessagelsILi53EEERS2_RAT__Kc.exit
  %.023 = phi i32 [ 2, %_ZN4absl12lts_2024072212log_internal10LogMessagelsILi53EEERS2_RAT__Kc.exit ], [ %24, %22 ], [ %21, %19 ]
  ret i32 %.023
}